target datalayout = "e-m:e-p270:32:32-p271:32:32-p272:64:64-i64:64-i128:128-f80:128-n8:16:32:64-S128"
target triple = "x86_64-pc-linux-gnu"

%struct.AVProbeData = type { ptr, ptr, i32, ptr }

; Function Attrs: alwaysinline nounwind willreturn memory(none) uwtable
define internal i32 @av_bswap32(i32 noundef %0) #2 {
  %2 = alloca i32, align 4
  store i32 %0, ptr %2, align 4, !tbaa !14
  %3 = load i32, ptr %2, align 4, !tbaa !14
  %4 = shl i32 %3, 8
  %5 = and i32 %4, 65280
  %6 = load i32, ptr %2, align 4, !tbaa !14
  %7 = lshr i32 %6, 8
  %8 = and i32 %7, 255
  %9 = or i32 %5, %8
  %10 = shl i32 %9, 16
  %11 = load i32, ptr %2, align 4, !tbaa !14
  %12 = lshr i32 %11, 16
  %13 = shl i32 %12, 8
  %14 = and i32 %13, 65280
  %15 = load i32, ptr %2, align 4, !tbaa !14
  %16 = lshr i32 %15, 16
  %17 = lshr i32 %16, 8
  %18 = and i32 %17, 255
  %19 = or i32 %14, %18
  %20 = or i32 %10, %19
  ret i32 %20
}

; Function Attrs: nounwind uwtable
define internal i32 @musx_probe(ptr noundef %0) #0 {
  %2 = alloca i32, align 4
  %3 = alloca ptr, align 8
  %4 = alloca i32, align 4
  %5 = alloca i32, align 4
  store ptr %0, ptr %3, align 8, !tbaa !4
  call void @llvm.lifetime.start.p0(i64 4, ptr %4) #5
  %6 = load ptr, ptr %3, align 8, !tbaa !4
  %7 = getelementptr inbounds nuw %struct.AVProbeData, ptr %6, i32 0, i32 1
  %8 = load ptr, ptr %7, align 8, !tbaa !9
  %9 = load i32, ptr %8, align 1, !tbaa !13
  %10 = call i32 @av_bswap32(i32 noundef %9) #6
  %11 = icmp ne i32 %10, 1297437528
  br i1 %11, label %12, label %13

12:                                               ; preds = %1
  store i32 0, ptr %2, align 4
  store i32 1, ptr %5, align 4
  br label %35

13:                                               ; preds = %1
  %14 = load ptr, ptr %3, align 8, !tbaa !4
  %15 = getelementptr inbounds nuw %struct.AVProbeData, ptr %14, i32 0, i32 1
  %16 = load ptr, ptr %15, align 8, !tbaa !9
  %17 = getelementptr inbounds i8, ptr %16, i64 8
  %18 = load i32, ptr %17, align 1, !tbaa !13
  store i32 %18, ptr %4, align 4, !tbaa !14
  %19 = load i32, ptr %4, align 4, !tbaa !14
  %20 = icmp ne i32 %19, 10
  br i1 %20, label %21, label %34

21:                                               ; preds = %13
  %22 = load i32, ptr %4, align 4, !tbaa !14
  %23 = icmp ne i32 %22, 6
  br i1 %23, label %24, label %34

24:                                               ; preds = %21
  %25 = load i32, ptr %4, align 4, !tbaa !14
  %26 = icmp ne i32 %25, 5
  br i1 %26, label %27, label %34

27:                                               ; preds = %24
  %28 = load i32, ptr %4, align 4, !tbaa !14
  %29 = icmp ne i32 %28, 4
  br i1 %29, label %30, label %34

30:                                               ; preds = %27
  %31 = load i32, ptr %4, align 4, !tbaa !14
  %32 = icmp ne i32 %31, 201
  br i1 %32, label %33, label %34

33:                                               ; preds = %30
  store i32 0, ptr %2, align 4
  store i32 1, ptr %5, align 4
  br label %35

34:                                               ; preds = %30, %27, %24, %21, %13
  store i32 40, ptr %2, align 4
  store i32 1, ptr %5, align 4
  br label %35

35:                                               ; preds = %34, %33, %12
  call void @llvm.lifetime.end.p0(i64 4, ptr %4) #5
  %36 = load i32, ptr %2, align 4
  ret i32 %36
}