; Function Attrs: mustprogress nofree norecurse nosync nounwind willreturn memory(read, inaccessiblemem: none) uwtable
define internal range(i32 0, 41) i32 @musx_probe(ptr noundef readonly captures(none) %0) #0 {
  %2 = getelementptr inbounds nuw i8, ptr %0, i64 8
  %3 = load ptr, ptr %2, align 8, !tbaa !4
  %4 = load i32, ptr %3, align 1, !tbaa !11
  %.not = icmp eq i32 %4, 1481856333
  br i1 %.not, label %5, label %9

5:                                                ; preds = %1
  %6 = getelementptr inbounds nuw i8, ptr %3, i64 8
  %7 = load i32, ptr %6, align 1, !tbaa !11
  switch i32 %7, label %9 [
    i32 201, label %8
    i32 10, label %8
    i32 6, label %8
    i32 5, label %8
    i32 4, label %8
  ]

8:                                                ; preds = %5, %5, %5, %5, %5
  br label %9

9:                                                ; preds = %5, %1, %8
  %.0 = phi i32 [ 40, %8 ], [ 0, %1 ], [ 0, %5 ]
  ret i32 %.0
}